target datalayout = "e-m:e-p270:32:32-p271:32:32-p272:64:64-i64:64-i128:128-f80:128-n8:16:32:64-S128"
target triple = "x86_64-pc-linux-gnu"

%struct.X509_pubkey_st = type { ptr, ptr, ptr, ptr, ptr, i8 }

@.str = private unnamed_addr constant [34 x i8] c"../openssl/crypto/x509/x_pubkey.c\00", align 1
@__func__.x509_pubkey_ex_new_ex = private unnamed_addr constant [22 x i8] c"x509_pubkey_ex_new_ex\00", align 1

; Function Attrs: nounwind uwtable
define internal void @x509_pubkey_ex_free(ptr noundef %0, ptr noundef %1) #0 {
  %3 = alloca ptr, align 8
  %4 = alloca ptr, align 8
  %5 = alloca ptr, align 8
  store ptr %0, ptr %3, align 8, !tbaa !31
  store ptr %1, ptr %4, align 8, !tbaa !33
  call void @llvm.lifetime.start.p0(i64 8, ptr %5) #5
  %6 = load ptr, ptr %3, align 8, !tbaa !31
  %7 = icmp ne ptr %6, null
  br i1 %7, label %8, label %27

8:                                                ; preds = %2
  %9 = load ptr, ptr %3, align 8, !tbaa !31
  %10 = load ptr, ptr %9, align 8, !tbaa !35
  store ptr %10, ptr %5, align 8, !tbaa !14
  %11 = icmp ne ptr %10, null
  br i1 %11, label %12, label %27

12:                                               ; preds = %8
  %13 = load ptr, ptr %5, align 8, !tbaa !14
  %14 = getelementptr inbounds nuw %struct.X509_pubkey_st, ptr %13, i32 0, i32 0
  %15 = load ptr, ptr %14, align 8, !tbaa !25
  call void @X509_ALGOR_free(ptr noundef %15)
  %16 = load ptr, ptr %5, align 8, !tbaa !14
  %17 = getelementptr inbounds nuw %struct.X509_pubkey_st, ptr %16, i32 0, i32 1
  %18 = load ptr, ptr %17, align 8, !tbaa !26
  call void @ASN1_BIT_STRING_free(ptr noundef %18)
  %19 = load ptr, ptr %5, align 8, !tbaa !14
  %20 = getelementptr inbounds nuw %struct.X509_pubkey_st, ptr %19, i32 0, i32 2
  %21 = load ptr, ptr %20, align 8, !tbaa !30
  call void @EVP_PKEY_free(ptr noundef %21)
  %22 = load ptr, ptr %5, align 8, !tbaa !14
  %23 = getelementptr inbounds nuw %struct.X509_pubkey_st, ptr %22, i32 0, i32 4
  %24 = load ptr, ptr %23, align 8, !tbaa !24
  call void @CRYPTO_free(ptr noundef %24, ptr noundef @.str, i32 noundef 94)
  %25 = load ptr, ptr %5, align 8, !tbaa !14
  call void @CRYPTO_free(ptr noundef %25, ptr noundef @.str, i32 noundef 95)
  %26 = load ptr, ptr %3, align 8, !tbaa !31
  store ptr null, ptr %26, align 8, !tbaa !35
  br label %27

27:                                               ; preds = %12, %8, %2
  call void @llvm.lifetime.end.p0(i64 8, ptr %5) #5
  ret void
}

; Function Attrs: nounwind uwtable
define internal i32 @x509_pubkey_set0_libctx(ptr noundef %0, ptr noundef %1, ptr noundef %2) #0 {
  %4 = alloca i32, align 4
  %5 = alloca ptr, align 8
  %6 = alloca ptr, align 8
  %7 = alloca ptr, align 8
  store ptr %0, ptr %5, align 8, !tbaa !14
  store ptr %1, ptr %6, align 8, !tbaa !10
  store ptr %2, ptr %7, align 8, !tbaa !12
  %8 = load ptr, ptr %5, align 8, !tbaa !14
  %9 = icmp ne ptr %8, null
  br i1 %9, label %10, label %33

10:                                               ; preds = %3
  %11 = load ptr, ptr %6, align 8, !tbaa !10
  %12 = load ptr, ptr %5, align 8, !tbaa !14
  %13 = getelementptr inbounds nuw %struct.X509_pubkey_st, ptr %12, i32 0, i32 3
  store ptr %11, ptr %13, align 8, !tbaa !18
  %14 = load ptr, ptr %5, align 8, !tbaa !14
  %15 = getelementptr inbounds nuw %struct.X509_pubkey_st, ptr %14, i32 0, i32 4
  %16 = load ptr, ptr %15, align 8, !tbaa !24
  call void @CRYPTO_free(ptr noundef %16, ptr noundef @.str, i32 noundef 52)
  %17 = load ptr, ptr %5, align 8, !tbaa !14
  %18 = getelementptr inbounds nuw %struct.X509_pubkey_st, ptr %17, i32 0, i32 4
  store ptr null, ptr %18, align 8, !tbaa !24
  %19 = load ptr, ptr %7, align 8, !tbaa !12
  %20 = icmp ne ptr %19, null
  br i1 %20, label %21, label %32

21:                                               ; preds = %10
  %22 = load ptr, ptr %7, align 8, !tbaa !12
  %23 = call noalias ptr @CRYPTO_strdup(ptr noundef %22, ptr noundef @.str, i32 noundef 55)
  %24 = load ptr, ptr %5, align 8, !tbaa !14
  %25 = getelementptr inbounds nuw %struct.X509_pubkey_st, ptr %24, i32 0, i32 4
  store ptr %23, ptr %25, align 8, !tbaa !24
  %26 = load ptr, ptr %5, align 8, !tbaa !14
  %27 = getelementptr inbounds nuw %struct.X509_pubkey_st, ptr %26, i32 0, i32 4
  %28 = load ptr, ptr %27, align 8, !tbaa !24
  %29 = icmp eq ptr %28, null
  br i1 %29, label %30, label %31

30:                                               ; preds = %21
  store i32 0, ptr %4, align 4
  br label %34

31:                                               ; preds = %21
  br label %32

32:                                               ; preds = %31, %10
  br label %33

33:                                               ; preds = %32, %3
  store i32 1, ptr %4, align 4
  br label %34

34:                                               ; preds = %33, %30
  %35 = load i32, ptr %4, align 4
  ret i32 %35
}

; Function Attrs: nounwind uwtable
define internal i32 @x509_pubkey_ex_populate(ptr noundef %0, ptr noundef %1) #0 {
  %3 = alloca ptr, align 8
  %4 = alloca ptr, align 8
  %5 = alloca ptr, align 8
  store ptr %0, ptr %3, align 8, !tbaa !31
  store ptr %1, ptr %4, align 8, !tbaa !33
  call void @llvm.lifetime.start.p0(i64 8, ptr %5) #5
  %6 = load ptr, ptr %3, align 8, !tbaa !31
  %7 = load ptr, ptr %6, align 8, !tbaa !35
  store ptr %7, ptr %5, align 8, !tbaa !14
  %8 = load ptr, ptr %5, align 8, !tbaa !14
  %9 = getelementptr inbounds nuw %struct.X509_pubkey_st, ptr %8, i32 0, i32 0
  %10 = load ptr, ptr %9, align 8, !tbaa !25
  %11 = icmp ne ptr %10, null
  br i1 %11, label %17, label %12

12:                                               ; preds = %2
  %13 = call ptr @X509_ALGOR_new()
  %14 = load ptr, ptr %5, align 8, !tbaa !14
  %15 = getelementptr inbounds nuw %struct.X509_pubkey_st, ptr %14, i32 0, i32 0
  store ptr %13, ptr %15, align 8, !tbaa !25
  %16 = icmp ne ptr %13, null
  br i1 %16, label %17, label %29

17:                                               ; preds = %12, %2
  %18 = load ptr, ptr %5, align 8, !tbaa !14
  %19 = getelementptr inbounds nuw %struct.X509_pubkey_st, ptr %18, i32 0, i32 1
  %20 = load ptr, ptr %19, align 8, !tbaa !26
  %21 = icmp ne ptr %20, null
  br i1 %21, label %27, label %22

22:                                               ; preds = %17
  %23 = call ptr @ASN1_BIT_STRING_new()
  %24 = load ptr, ptr %5, align 8, !tbaa !14
  %25 = getelementptr inbounds nuw %struct.X509_pubkey_st, ptr %24, i32 0, i32 1
  store ptr %23, ptr %25, align 8, !tbaa !26
  %26 = icmp ne ptr %23, null
  br label %27

27:                                               ; preds = %22, %17
  %28 = phi i1 [ true, %17 ], [ %26, %22 ]
  br label %29

29:                                               ; preds = %27, %12
  %30 = phi i1 [ false, %12 ], [ %28, %27 ]
  %31 = zext i1 %30 to i32
  call void @llvm.lifetime.end.p0(i64 8, ptr %5) #5
  ret i32 %31
}

; Function Attrs: nounwind uwtable
define internal i32 @x509_pubkey_ex_new_ex(ptr noundef %0, ptr noundef %1, ptr noundef %2, ptr noundef %3) #0 {
  %5 = alloca i32, align 4
  %6 = alloca ptr, align 8
  %7 = alloca ptr, align 8
  %8 = alloca ptr, align 8
  %9 = alloca ptr, align 8
  %10 = alloca ptr, align 8
  %11 = alloca i32, align 4
  store ptr %0, ptr %6, align 8, !tbaa !31
  store ptr %1, ptr %7, align 8, !tbaa !33
  store ptr %2, ptr %8, align 8, !tbaa !10
  store ptr %3, ptr %9, align 8, !tbaa !12
  call void @llvm.lifetime.start.p0(i64 8, ptr %10) #5
  %12 = call noalias ptr @CRYPTO_zalloc(i64 noundef 48, ptr noundef @.str, i32 noundef 116)
  store ptr %12, ptr %10, align 8, !tbaa !14
  %13 = icmp eq ptr %12, null
  br i1 %13, label %14, label %15

14:                                               ; preds = %4
  store i32 0, ptr %5, align 4
  store i32 1, ptr %11, align 4
  br label %32

15:                                               ; preds = %4
  %16 = call i32 @x509_pubkey_ex_populate(ptr noundef %10, ptr noundef null)
  %17 = icmp ne i32 %16, 0
  br i1 %17, label %18, label %24

18:                                               ; preds = %15
  %19 = load ptr, ptr %10, align 8, !tbaa !14
  %20 = load ptr, ptr %8, align 8, !tbaa !10
  %21 = load ptr, ptr %9, align 8, !tbaa !12
  %22 = call i32 @x509_pubkey_set0_libctx(ptr noundef %19, ptr noundef %20, ptr noundef %21)
  %23 = icmp ne i32 %22, 0
  br i1 %23, label %25, label %24

24:                                               ; preds = %18, %15
  call void @x509_pubkey_ex_free(ptr noundef %10, ptr noundef null)
  store ptr null, ptr %10, align 8, !tbaa !14
  call void @ERR_new()
  call void @ERR_set_debug(ptr noundef @.str, i32 noundef 122, ptr noundef @__func__.x509_pubkey_ex_new_ex)
  call void (i32, i32, ptr, ...) @ERR_set_error(i32 noundef 13, i32 noundef 524299, ptr noundef null)
  br label %28

25:                                               ; preds = %18
  %26 = load ptr, ptr %10, align 8, !tbaa !14
  %27 = load ptr, ptr %6, align 8, !tbaa !31
  store ptr %26, ptr %27, align 8, !tbaa !35
  br label %28

28:                                               ; preds = %25, %24
  %29 = load ptr, ptr %10, align 8, !tbaa !14
  %30 = icmp ne ptr %29, null
  %31 = zext i1 %30 to i32
  store i32 %31, ptr %5, align 4
  store i32 1, ptr %11, align 4
  br label %32

32:                                               ; preds = %28, %14
  call void @llvm.lifetime.end.p0(i64 8, ptr %10) #5
  %33 = load i32, ptr %5, align 4
  ret i32 %33
}