; Function Attrs: nounwind uwtable
define internal range(i32 0, 2) i32 @x509_pubkey_ex_new_ex(ptr noundef writeonly captures(none) %0, ptr readnone captures(none) %1, ptr noundef %2, ptr noundef %3) #0 {
  %5 = tail call noalias ptr @CRYPTO_zalloc(i64 noundef 48, ptr noundef nonnull @.str, i32 noundef 116) #9
  %6 = icmp eq ptr %5, null
  br i1 %6, label %28, label %7

7:                                                ; preds = %4
  %8 = load ptr, ptr %5, align 8, !tbaa !17
  %.not.i = icmp eq ptr %8, null
  br i1 %.not.i, label %9, label %11

9:                                                ; preds = %7
  %10 = tail call ptr @X509_ALGOR_new() #9
  store ptr %10, ptr %5, align 8, !tbaa !17
  %.not5.i = icmp eq ptr %10, null
  br i1 %.not5.i, label %x509_pubkey_ex_free.exit, label %11

11:                                               ; preds = %9, %7
  %12 = getelementptr inbounds nuw i8, ptr %5, i64 8
  %13 = load ptr, ptr %12, align 8, !tbaa !18
  %.not6.i = icmp eq ptr %13, null
  br i1 %.not6.i, label %x509_pubkey_ex_populate.exit, label %x509_pubkey_ex_populate.exit.thread11

x509_pubkey_ex_populate.exit:                     ; preds = %11
  %14 = tail call ptr @ASN1_BIT_STRING_new() #9
  store ptr %14, ptr %12, align 8, !tbaa !18
  %.not15 = icmp eq ptr %14, null
  br i1 %.not15, label %x509_pubkey_ex_free.exit, label %x509_pubkey_ex_populate.exit.thread11

x509_pubkey_ex_populate.exit.thread11:            ; preds = %11, %x509_pubkey_ex_populate.exit
  %15 = getelementptr inbounds nuw i8, ptr %5, i64 24
  store ptr %2, ptr %15, align 8, !tbaa !8
  %16 = getelementptr inbounds nuw i8, ptr %5, i64 32
  %17 = load ptr, ptr %16, align 8, !tbaa !16
  tail call void @CRYPTO_free(ptr noundef %17, ptr noundef nonnull @.str, i32 noundef 52) #9
  store ptr null, ptr %16, align 8, !tbaa !16
  %.not11.i = icmp eq ptr %3, null
  br i1 %.not11.i, label %x509_pubkey_set0_libctx.exit, label %18

18:                                               ; preds = %x509_pubkey_ex_populate.exit.thread11
  %19 = tail call noalias ptr @CRYPTO_strdup(ptr noundef nonnull %3, ptr noundef nonnull @.str, i32 noundef 55) #9
  store ptr %19, ptr %16, align 8, !tbaa !16
  %20 = icmp eq ptr %19, null
  br i1 %20, label %x509_pubkey_ex_free.exit, label %x509_pubkey_set0_libctx.exit

x509_pubkey_ex_free.exit:                         ; preds = %18, %9, %x509_pubkey_ex_populate.exit
  %21 = load ptr, ptr %5, align 8, !tbaa !17
  tail call void @X509_ALGOR_free(ptr noundef %21) #9
  %22 = getelementptr inbounds nuw i8, ptr %5, i64 8
  %23 = load ptr, ptr %22, align 8, !tbaa !18
  tail call void @ASN1_BIT_STRING_free(ptr noundef %23) #9
  %24 = getelementptr inbounds nuw i8, ptr %5, i64 16
  %25 = load ptr, ptr %24, align 8, !tbaa !19
  tail call void @EVP_PKEY_free(ptr noundef %25) #9
  %26 = getelementptr inbounds nuw i8, ptr %5, i64 32
  %27 = load ptr, ptr %26, align 8, !tbaa !16
  tail call void @CRYPTO_free(ptr noundef %27, ptr noundef nonnull @.str, i32 noundef 94) #9
  tail call void @CRYPTO_free(ptr noundef nonnull %5, ptr noundef nonnull @.str, i32 noundef 95) #9
  tail call void @ERR_new() #9
  tail call void @ERR_set_debug(ptr noundef nonnull @.str, i32 noundef 122, ptr noundef nonnull @__func__.x509_pubkey_ex_new_ex) #9
  tail call void (i32, i32, ptr, ...) @ERR_set_error(i32 noundef 13, i32 noundef 524299, ptr noundef null) #9
  br label %28

x509_pubkey_set0_libctx.exit:                     ; preds = %18, %x509_pubkey_ex_populate.exit.thread11
  store ptr %5, ptr %0, align 8, !tbaa !24
  br label %28

28:                                               ; preds = %x509_pubkey_ex_free.exit, %x509_pubkey_set0_libctx.exit, %4
  %.0 = phi i32 [ 0, %4 ], [ 0, %x509_pubkey_ex_free.exit ], [ 1, %x509_pubkey_set0_libctx.exit ]
  ret i32 %.0
}